; ModuleID = '44/1007.c'
source_filename = "44/1007.c"
target datalayout = "e-m:e-p270:32:32-p271:32:32-p272:64:64-i64:64-f80:128-n8:16:32:64-S128"
target triple = "x86_64-pc-linux-gnu"

@.str = private unnamed_addr constant [3 x i8] c"%d\00", align 1
@.str.1 = private unnamed_addr constant [4 x i8] c"%d\0A\00", align 1

; Function Attrs: noinline nounwind uwtable
define dso_local i32 @reverse(i32 %0) #0 {
  %2 = alloca i32, align 4
  %3 = alloca i32, align 4
  %4 = alloca i32, align 4
  %5 = alloca i32, align 4
  store i32 %0, i32* %3, align 4
  store i32 0, i32* %4, align 4
  %6 = load i32, i32* %3, align 4
  %7 = icmp sge i32 %6, 0
  br i1 %7, label %8, label %23

8:                                                ; preds = %1
  %9 = load i32, i32* %3, align 4
  store i32 %9, i32* %5, align 4
  br label %10

10:                                               ; preds = %13, %8
  %11 = load i32, i32* %5, align 4
  %12 = icmp ne i32 %11, 0
  br i1 %12, label %13, label %21

13:                                               ; preds = %10
  %14 = load i32, i32* %4, align 4
  %15 = mul nsw i32 %14, 10
  %16 = load i32, i32* %5, align 4
  %17 = srem i32 %16, 10
  %18 = add nsw i32 %15, %17
  store i32 %18, i32* %4, align 4
  %19 = load i32, i32* %5, align 4
  %20 = sdiv i32 %19, 10
  store i32 %20, i32* %5, align 4
  br label %10

21:                                               ; preds = %10
  %22 = load i32, i32* %4, align 4
  store i32 %22, i32* %2, align 4
  br label %40

23:                                               ; preds = %1
  %24 = load i32, i32* %3, align 4
  %25 = sub nsw i32 0, %24
  store i32 %25, i32* %5, align 4
  br label %26

26:                                               ; preds = %29, %23
  %27 = load i32, i32* %5, align 4
  %28 = icmp ne i32 %27, 0
  br i1 %28, label %29, label %37

29:                                               ; preds = %26
  %30 = load i32, i32* %4, align 4
  %31 = mul nsw i32 %30, 10
  %32 = load i32, i32* %5, align 4
  %33 = srem i32 %32, 10
  %34 = add nsw i32 %31, %33
  store i32 %34, i32* %4, align 4
  %35 = load i32, i32* %5, align 4
  %36 = sdiv i32 %35, 10
  store i32 %36, i32* %5, align 4
  br label %26

37:                                               ; preds = %26
  %38 = load i32, i32* %4, align 4
  %39 = sub nsw i32 0, %38
  store i32 %39, i32* %2, align 4
  br label %40

40:                                               ; preds = %37, %21
  %41 = load i32, i32* %2, align 4
  ret i32 %41
}

; Function Attrs: noinline nounwind uwtable
define dso_local i32 @main() #0 {
  %1 = alloca i32, align 4
  %2 = alloca i32, align 4
  %3 = alloca [10 x i32], align 16
  %4 = alloca [10 x i32], align 16
  store i32 0, i32* %1, align 4
  store i32 0, i32* %2, align 4
  br label %5

5:                                                ; preds = %13, %0
  %6 = load i32, i32* %2, align 4
  %7 = icmp slt i32 %6, 6
  br i1 %7, label %8, label %16

8:                                                ; preds = %5
  %9 = load i32, i32* %2, align 4
  %10 = sext i32 %9 to i64
  %11 = getelementptr inbounds [10 x i32], [10 x i32]* %3, i64 0, i64 %10
  %12 = call i32 (i8*, ...) @__isoc99_scanf(i8* getelementptr inbounds ([3 x i8], [3 x i8]* @.str, i64 0, i64 0), i32* %11)
  br label %13

13:                                               ; preds = %8
  %14 = load i32, i32* %2, align 4
  %15 = add nsw i32 %14, 1
  store i32 %15, i32* %2, align 4
  br label %5

16:                                               ; preds = %5
  store i32 0, i32* %2, align 4
  br label %17

17:                                               ; preds = %34, %16
  %18 = load i32, i32* %2, align 4
  %19 = icmp slt i32 %18, 6
  br i1 %19, label %20, label %37

20:                                               ; preds = %17
  %21 = load i32, i32* %2, align 4
  %22 = sext i32 %21 to i64
  %23 = getelementptr inbounds [10 x i32], [10 x i32]* %3, i64 0, i64 %22
  %24 = load i32, i32* %23, align 4
  %25 = call i32 @reverse(i32 %24)
  %26 = load i32, i32* %2, align 4
  %27 = sext i32 %26 to i64
  %28 = getelementptr inbounds [10 x i32], [10 x i32]* %4, i64 0, i64 %27
  store i32 %25, i32* %28, align 4
  %29 = load i32, i32* %2, align 4
  %30 = sext i32 %29 to i64
  %31 = getelementptr inbounds [10 x i32], [10 x i32]* %4, i64 0, i64 %30
  %32 = load i32, i32* %31, align 4
  %33 = call i32 (i8*, ...) @printf(i8* getelementptr inbounds ([4 x i8], [4 x i8]* @.str.1, i64 0, i64 0), i32 %32)
  br label %34

34:                                               ; preds = %20
  %35 = load i32, i32* %2, align 4
  %36 = add nsw i32 %35, 1
  store i32 %36, i32* %2, align 4
  br label %17

37:                                               ; preds = %17
  %38 = call i32 @getchar()
  %39 = call i32 @getchar()
  %40 = call i32 @getchar()
  %41 = load i32, i32* %1, align 4
  ret i32 %41
}

declare dso_local i32 @__isoc99_scanf(i8*, ...) #1

declare dso_local i32 @printf(i8*, ...) #1

declare dso_local i32 @getchar() #1


!llvm.module.flags = !{!0}
!llvm.ident = !{!1}

!0 = !{i32 1, !"wchar_size", i32 4}
!1 = !{!"clang version 10.0.0-4ubuntu1 "}
